target datalayout = "e-m:e-p270:32:32-p271:32:32-p272:64:64-i64:64-i128:128-f80:128-n8:16:32:64-S128"
target triple = "x86_64-pc-linux-gnu"

%struct.slurm_step_id_msg = type { i64, i32, i32, i32 }
%struct.job_step_kill_msg = type { ptr, i16, i16, ptr, %struct.slurm_step_id_msg }

@.str.2 = private unnamed_addr constant [22 x i8] c"slurm_protocol_pack.c\00", align 1
@__func__._unpack_job_step_kill_msg = private unnamed_addr constant [26 x i8] c"_unpack_job_step_kill_msg\00", align 1

; Function Attrs: nounwind uwtable
define internal i32 @_unpack_job_step_kill_msg(ptr noundef %0, ptr noundef %1, i16 noundef zeroext %2) #0 {
  %4 = alloca i32, align 4
  %5 = alloca ptr, align 8
  %6 = alloca ptr, align 8
  %7 = alloca i16, align 2
  %8 = alloca ptr, align 8
  %9 = alloca i32, align 4
  %10 = alloca i32, align 4
  %11 = alloca i32, align 4
  %12 = alloca i32, align 4
  %13 = alloca i32, align 4
  store ptr %0, ptr %5, align 8
  store ptr %1, ptr %6, align 8
  store i16 %2, ptr %7, align 2
  call void @llvm.lifetime.start.p0(i64 8, ptr %8) #6
  %14 = call ptr @slurm_xcalloc(i64 noundef 1, i64 noundef 48, i1 noundef zeroext true, i1 noundef zeroext false, ptr noundef @.str.2, i32 noundef 8561, ptr noundef @__func__._unpack_job_step_kill_msg)
  store ptr %14, ptr %8, align 8
  %15 = load ptr, ptr %8, align 8
  %16 = load ptr, ptr %5, align 8
  store ptr %15, ptr %16, align 8
  %17 = load i16, ptr %7, align 2
  %18 = zext i16 %17 to i32
  %19 = icmp sge i32 %18, 10496
  br i1 %19, label %20, label %75

20:                                               ; preds = %3
  %21 = load ptr, ptr %8, align 8
  %22 = getelementptr inbounds nuw %struct.job_step_kill_msg, ptr %21, i32 0, i32 4
  %23 = load ptr, ptr %6, align 8
  %24 = load i16, ptr %7, align 2
  %25 = call i32 @unpack_step_id_members(ptr noundef %22, ptr noundef %23, i16 noundef zeroext %24)
  %26 = icmp ne i32 %25, 0
  br i1 %26, label %27, label %28

27:                                               ; preds = %20
  br label %150

28:                                               ; preds = %20
  br label %29

29:                                               ; preds = %28
  call void @llvm.lifetime.start.p0(i64 4, ptr %9) #6
  %30 = load ptr, ptr %8, align 8
  %31 = getelementptr inbounds nuw %struct.job_step_kill_msg, ptr %30, i32 0, i32 0
  %32 = load ptr, ptr %6, align 8
  %33 = call i32 @unpackstr_xmalloc_chooser(ptr noundef %31, ptr noundef %9, ptr noundef %32)
  %34 = icmp ne i32 %33, 0
  br i1 %34, label %35, label %36

35:                                               ; preds = %29
  store i32 2, ptr %10, align 4
  br label %37

36:                                               ; preds = %29
  store i32 0, ptr %10, align 4
  br label %37

37:                                               ; preds = %35, %36
  call void @llvm.lifetime.end.p0(i64 4, ptr %9) #6
  %38 = load i32, ptr %10, align 4
  switch i32 %38, label %153 [
    i32 0, label %39
    i32 2, label %150
  ]

39:                                               ; preds = %37
  br label %40

40:                                               ; preds = %39
  br label %41

41:                                               ; preds = %40
  br label %42

42:                                               ; preds = %41
  call void @llvm.lifetime.start.p0(i64 4, ptr %11) #6
  %43 = load ptr, ptr %8, align 8
  %44 = getelementptr inbounds nuw %struct.job_step_kill_msg, ptr %43, i32 0, i32 3
  %45 = load ptr, ptr %6, align 8
  %46 = call i32 @unpackstr_xmalloc_chooser(ptr noundef %44, ptr noundef %11, ptr noundef %45)
  %47 = icmp ne i32 %46, 0
  br i1 %47, label %48, label %49

48:                                               ; preds = %42
  store i32 2, ptr %10, align 4
  br label %50

49:                                               ; preds = %42
  store i32 0, ptr %10, align 4
  br label %50

50:                                               ; preds = %48, %49
  call void @llvm.lifetime.end.p0(i64 4, ptr %11) #6
  %51 = load i32, ptr %10, align 4
  switch i32 %51, label %153 [
    i32 0, label %52
    i32 2, label %150
  ]

52:                                               ; preds = %50
  br label %53

53:                                               ; preds = %52
  br label %54

54:                                               ; preds = %53
  br label %55

55:                                               ; preds = %54
  %56 = load ptr, ptr %8, align 8
  %57 = getelementptr inbounds nuw %struct.job_step_kill_msg, ptr %56, i32 0, i32 1
  %58 = load ptr, ptr %6, align 8
  %59 = call i32 @unpack16(ptr noundef %57, ptr noundef %58)
  %60 = icmp ne i32 %59, 0
  br i1 %60, label %61, label %62

61:                                               ; preds = %55
  br label %150

62:                                               ; preds = %55
  br label %63

63:                                               ; preds = %62
  br label %64

64:                                               ; preds = %63
  br label %65

65:                                               ; preds = %64
  %66 = load ptr, ptr %8, align 8
  %67 = getelementptr inbounds nuw %struct.job_step_kill_msg, ptr %66, i32 0, i32 2
  %68 = load ptr, ptr %6, align 8
  %69 = call i32 @unpack16(ptr noundef %67, ptr noundef %68)
  %70 = icmp ne i32 %69, 0
  br i1 %70, label %71, label %72

71:                                               ; preds = %65
  br label %150

72:                                               ; preds = %65
  br label %73

73:                                               ; preds = %72
  br label %74

74:                                               ; preds = %73
  br label %149

75:                                               ; preds = %3
  %76 = load i16, ptr %7, align 2
  %77 = zext i16 %76 to i32
  %78 = icmp sge i32 %77, 10240
  br i1 %78, label %79, label %148

79:                                               ; preds = %75
  %80 = load ptr, ptr %8, align 8
  %81 = getelementptr inbounds nuw %struct.job_step_kill_msg, ptr %80, i32 0, i32 4
  %82 = load ptr, ptr %6, align 8
  %83 = load i16, ptr %7, align 2
  %84 = call i32 @unpack_step_id_members(ptr noundef %81, ptr noundef %82, i16 noundef zeroext %83)
  %85 = icmp ne i32 %84, 0
  br i1 %85, label %86, label %87

86:                                               ; preds = %79
  br label %150

87:                                               ; preds = %79
  br label %88

88:                                               ; preds = %87
  call void @llvm.lifetime.start.p0(i64 4, ptr %12) #6
  %89 = load ptr, ptr %8, align 8
  %90 = getelementptr inbounds nuw %struct.job_step_kill_msg, ptr %89, i32 0, i32 0
  %91 = load ptr, ptr %6, align 8
  %92 = call i32 @unpackstr_xmalloc_chooser(ptr noundef %90, ptr noundef %12, ptr noundef %91)
  %93 = icmp ne i32 %92, 0
  br i1 %93, label %94, label %95

94:                                               ; preds = %88
  store i32 2, ptr %10, align 4
  br label %96

95:                                               ; preds = %88
  store i32 0, ptr %10, align 4
  br label %96

96:                                               ; preds = %94, %95
  call void @llvm.lifetime.end.p0(i64 4, ptr %12) #6
  %97 = load i32, ptr %10, align 4
  switch i32 %97, label %153 [
    i32 0, label %98
    i32 2, label %150
  ]

98:                                               ; preds = %96
  br label %99

99:                                               ; preds = %98
  br label %100

100:                                              ; preds = %99
  br label %101

101:                                              ; preds = %100
  call void @llvm.lifetime.start.p0(i64 4, ptr %13) #6
  %102 = load ptr, ptr %8, align 8
  %103 = getelementptr inbounds nuw %struct.job_step_kill_msg, ptr %102, i32 0, i32 3
  %104 = load ptr, ptr %6, align 8
  %105 = call i32 @unpackstr_xmalloc_chooser(ptr noundef %103, ptr noundef %13, ptr noundef %104)
  %106 = icmp ne i32 %105, 0
  br i1 %106, label %107, label %108

107:                                              ; preds = %101
  store i32 2, ptr %10, align 4
  br label %109

108:                                              ; preds = %101
  store i32 0, ptr %10, align 4
  br label %109

109:                                              ; preds = %107, %108
  call void @llvm.lifetime.end.p0(i64 4, ptr %13) #6
  %110 = load i32, ptr %10, align 4
  switch i32 %110, label %153 [
    i32 0, label %111
    i32 2, label %150
  ]

111:                                              ; preds = %109
  br label %112

112:                                              ; preds = %111
  br label %113

113:                                              ; preds = %112
  br label %114

114:                                              ; preds = %113
  %115 = load ptr, ptr %8, align 8
  %116 = getelementptr inbounds nuw %struct.job_step_kill_msg, ptr %115, i32 0, i32 1
  %117 = load ptr, ptr %6, align 8
  %118 = call i32 @unpack16(ptr noundef %116, ptr noundef %117)
  %119 = icmp ne i32 %118, 0
  br i1 %119, label %120, label %121

120:                                              ; preds = %114
  br label %150

121:                                              ; preds = %114
  br label %122

122:                                              ; preds = %121
  br label %123

123:                                              ; preds = %122
  br label %124

124:                                              ; preds = %123
  %125 = load ptr, ptr %8, align 8
  %126 = getelementptr inbounds nuw %struct.job_step_kill_msg, ptr %125, i32 0, i32 2
  %127 = load ptr, ptr %6, align 8
  %128 = call i32 @unpack16(ptr noundef %126, ptr noundef %127)
  %129 = icmp ne i32 %128, 0
  br i1 %129, label %130, label %131

130:                                              ; preds = %124
  br label %150

131:                                              ; preds = %124
  br label %132

132:                                              ; preds = %131
  br label %133

133:                                              ; preds = %132
  %134 = load ptr, ptr %8, align 8
  %135 = getelementptr inbounds nuw %struct.job_step_kill_msg, ptr %134, i32 0, i32 2
  %136 = load i16, ptr %135, align 2
  %137 = zext i16 %136 to i64
  %138 = and i64 %137, 512
  %139 = icmp ne i64 %138, 0
  br i1 %139, label %147, label %140

140:                                              ; preds = %133
  %141 = load ptr, ptr %8, align 8
  %142 = getelementptr inbounds nuw %struct.job_step_kill_msg, ptr %141, i32 0, i32 2
  %143 = load i16, ptr %142, align 2
  %144 = zext i16 %143 to i64
  %145 = or i64 %144, 4096
  %146 = trunc i64 %145 to i16
  store i16 %146, ptr %142, align 2
  br label %147

147:                                              ; preds = %140, %133
  br label %148

148:                                              ; preds = %147, %75
  br label %149

149:                                              ; preds = %148, %74
  store i32 0, ptr %4, align 4
  store i32 1, ptr %10, align 4
  br label %153

150:                                              ; preds = %109, %96, %50, %37, %130, %120, %86, %71, %61, %27
  %151 = load ptr, ptr %8, align 8
  call void @slurm_free_job_step_kill_msg(ptr noundef %151)
  %152 = load ptr, ptr %5, align 8
  store ptr null, ptr %152, align 8
  store i32 -1, ptr %4, align 4
  store i32 1, ptr %10, align 4
  br label %153

153:                                              ; preds = %150, %149, %109, %96, %50, %37
  call void @llvm.lifetime.end.p0(i64 8, ptr %8) #6
  %154 = load i32, ptr %4, align 4
  ret i32 %154
}