; Function Attrs: nounwind uwtable
define internal fastcc range(i32 -1, 1) i32 @_unpack_job_step_kill_msg(ptr noundef writeonly captures(none) initializes((0, 8)) %0, ptr noundef %1, i16 noundef zeroext %2) unnamed_addr #0 {
  %4 = alloca i32, align 4
  %5 = alloca i32, align 4
  %6 = alloca i32, align 4
  %7 = alloca i32, align 4
  %8 = tail call ptr @slurm_xcalloc(i64 noundef 1, i64 noundef 48, i1 noundef zeroext true, i1 noundef zeroext false, ptr noundef nonnull @.str.2, i32 noundef 8561, ptr noundef nonnull @__func__._unpack_job_step_kill_msg) #7
  store ptr %8, ptr %0, align 8
  %9 = icmp ugt i16 %2, 10495
  br i1 %9, label %10, label %24

10:                                               ; preds = %3
  %11 = getelementptr inbounds nuw i8, ptr %8, i64 24
  %12 = tail call i32 @unpack_step_id_members(ptr noundef nonnull %11, ptr noundef %1, i16 noundef zeroext %2)
  %.not41 = icmp eq i32 %12, 0
  br i1 %.not41, label %13, label %45

13:                                               ; preds = %10
  call void @llvm.lifetime.start.p0(i64 4, ptr nonnull %4) #7
  %14 = call i32 @unpackstr_xmalloc_chooser(ptr noundef nonnull %8, ptr noundef nonnull %4, ptr noundef %1) #7
  %.not42 = icmp eq i32 %14, 0
  call void @llvm.lifetime.end.p0(i64 4, ptr nonnull %4) #7
  br i1 %.not42, label %15, label %45

15:                                               ; preds = %13
  call void @llvm.lifetime.start.p0(i64 4, ptr nonnull %5) #7
  %16 = getelementptr inbounds nuw i8, ptr %8, i64 16
  %17 = call i32 @unpackstr_xmalloc_chooser(ptr noundef nonnull %16, ptr noundef nonnull %5, ptr noundef %1) #7
  %.not43 = icmp eq i32 %17, 0
  call void @llvm.lifetime.end.p0(i64 4, ptr nonnull %5) #7
  br i1 %.not43, label %18, label %45

18:                                               ; preds = %15
  %19 = getelementptr inbounds nuw i8, ptr %8, i64 8
  %20 = call i32 @unpack16(ptr noundef nonnull %19, ptr noundef %1) #7
  %.not44 = icmp eq i32 %20, 0
  br i1 %.not44, label %21, label %45

21:                                               ; preds = %18
  %22 = getelementptr inbounds nuw i8, ptr %8, i64 10
  %23 = call i32 @unpack16(ptr noundef nonnull %22, ptr noundef %1) #7
  %.not45 = icmp eq i32 %23, 0
  br i1 %.not45, label %46, label %45

24:                                               ; preds = %3
  %25 = icmp samesign ugt i16 %2, 10239
  br i1 %25, label %26, label %46

26:                                               ; preds = %24
  %27 = getelementptr inbounds nuw i8, ptr %8, i64 24
  %28 = tail call i32 @unpack_step_id_members(ptr noundef nonnull %27, ptr noundef %1, i16 noundef zeroext %2)
  %.not = icmp eq i32 %28, 0
  br i1 %.not, label %29, label %45

29:                                               ; preds = %26
  call void @llvm.lifetime.start.p0(i64 4, ptr nonnull %6) #7
  %30 = call i32 @unpackstr_xmalloc_chooser(ptr noundef nonnull %8, ptr noundef nonnull %6, ptr noundef %1) #7
  %.not36 = icmp eq i32 %30, 0
  call void @llvm.lifetime.end.p0(i64 4, ptr nonnull %6) #7
  br i1 %.not36, label %31, label %45

31:                                               ; preds = %29
  call void @llvm.lifetime.start.p0(i64 4, ptr nonnull %7) #7
  %32 = getelementptr inbounds nuw i8, ptr %8, i64 16
  %33 = call i32 @unpackstr_xmalloc_chooser(ptr noundef nonnull %32, ptr noundef nonnull %7, ptr noundef %1) #7
  %.not37 = icmp eq i32 %33, 0
  call void @llvm.lifetime.end.p0(i64 4, ptr nonnull %7) #7
  br i1 %.not37, label %34, label %45

34:                                               ; preds = %31
  %35 = getelementptr inbounds nuw i8, ptr %8, i64 8
  %36 = call i32 @unpack16(ptr noundef nonnull %35, ptr noundef %1) #7
  %.not38 = icmp eq i32 %36, 0
  br i1 %.not38, label %37, label %45

37:                                               ; preds = %34
  %38 = getelementptr inbounds nuw i8, ptr %8, i64 10
  %39 = call i32 @unpack16(ptr noundef nonnull %38, ptr noundef %1) #7
  %.not39 = icmp eq i32 %39, 0
  br i1 %.not39, label %40, label %45

40:                                               ; preds = %37
  %41 = load i16, ptr %38, align 2
  %42 = and i16 %41, 512
  %.not40 = icmp eq i16 %42, 0
  br i1 %.not40, label %43, label %46

43:                                               ; preds = %40
  %44 = or i16 %41, 4096
  store i16 %44, ptr %38, align 2
  br label %46

45:                                               ; preds = %31, %29, %15, %13, %37, %34, %26, %21, %18, %10
  call void @slurm_free_job_step_kill_msg(ptr noundef nonnull %8) #7
  store ptr null, ptr %0, align 8
  br label %46

46:                                               ; preds = %21, %40, %43, %24, %45
  %.034 = phi i32 [ -1, %45 ], [ 0, %24 ], [ 0, %43 ], [ 0, %40 ], [ 0, %21 ]
  ret i32 %.034
}